; ModuleID = '31/1714.c'
source_filename = "31/1714.c"
target datalayout = "e-m:e-p270:32:32-p271:32:32-p272:64:64-i64:64-f80:128-n8:16:32:64-S128"
target triple = "x86_64-pc-linux-gnu"

%struct.stu_imformation = type { [16 x i8], [20 x i8], i8, i32, [10 x i8], [20 x i8], %struct.stu_imformation* }

@.str = private unnamed_addr constant [18 x i8] c"%s %s %c %d %s %s\00", align 1
@.str.1 = private unnamed_addr constant [3 x i8] c"%s\00", align 1
@.str.2 = private unnamed_addr constant [4 x i8] c"end\00", align 1
@.str.3 = private unnamed_addr constant [15 x i8] c"%s %c %d %s %s\00", align 1
@.str.4 = private unnamed_addr constant [19 x i8] c"%s %s %c %d %s %s\0A\00", align 1

; Function Attrs: noinline nounwind uwtable
define dso_local void @main() #0 {
  %1 = alloca %struct.stu_imformation*, align 8
  %2 = alloca %struct.stu_imformation*, align 8
  %3 = alloca %struct.stu_imformation*, align 8
  %4 = call noalias i8* @malloc(i64 100) #4
  %5 = bitcast i8* %4 to %struct.stu_imformation*
  store %struct.stu_imformation* %5, %struct.stu_imformation** %1, align 8
  %6 = load %struct.stu_imformation*, %struct.stu_imformation** %1, align 8
  %7 = getelementptr inbounds %struct.stu_imformation, %struct.stu_imformation* %6, i32 0, i32 0
  %8 = getelementptr inbounds [16 x i8], [16 x i8]* %7, i64 0, i64 0
  %9 = load %struct.stu_imformation*, %struct.stu_imformation** %1, align 8
  %10 = getelementptr inbounds %struct.stu_imformation, %struct.stu_imformation* %9, i32 0, i32 1
  %11 = getelementptr inbounds [20 x i8], [20 x i8]* %10, i64 0, i64 0
  %12 = load %struct.stu_imformation*, %struct.stu_imformation** %1, align 8
  %13 = getelementptr inbounds %struct.stu_imformation, %struct.stu_imformation* %12, i32 0, i32 2
  %14 = load %struct.stu_imformation*, %struct.stu_imformation** %1, align 8
  %15 = getelementptr inbounds %struct.stu_imformation, %struct.stu_imformation* %14, i32 0, i32 3
  %16 = load %struct.stu_imformation*, %struct.stu_imformation** %1, align 8
  %17 = getelementptr inbounds %struct.stu_imformation, %struct.stu_imformation* %16, i32 0, i32 4
  %18 = getelementptr inbounds [10 x i8], [10 x i8]* %17, i64 0, i64 0
  %19 = load %struct.stu_imformation*, %struct.stu_imformation** %1, align 8
  %20 = getelementptr inbounds %struct.stu_imformation, %struct.stu_imformation* %19, i32 0, i32 5
  %21 = getelementptr inbounds [20 x i8], [20 x i8]* %20, i64 0, i64 0
  %22 = call i32 (i8*, ...) @__isoc99_scanf(i8* getelementptr inbounds ([18 x i8], [18 x i8]* @.str, i64 0, i64 0), i8* %8, i8* %11, i8* %13, i32* %15, i8* %18, i8* %21)
  %23 = load %struct.stu_imformation*, %struct.stu_imformation** %1, align 8
  store %struct.stu_imformation* %23, %struct.stu_imformation** %3, align 8
  %24 = load %struct.stu_imformation*, %struct.stu_imformation** %1, align 8
  %25 = getelementptr inbounds %struct.stu_imformation, %struct.stu_imformation* %24, i32 0, i32 6
  store %struct.stu_imformation* null, %struct.stu_imformation** %25, align 8
  %26 = call noalias i8* @malloc(i64 100) #4
  %27 = bitcast i8* %26 to %struct.stu_imformation*
  store %struct.stu_imformation* %27, %struct.stu_imformation** %2, align 8
  %28 = load %struct.stu_imformation*, %struct.stu_imformation** %2, align 8
  %29 = getelementptr inbounds %struct.stu_imformation, %struct.stu_imformation* %28, i32 0, i32 0
  %30 = getelementptr inbounds [16 x i8], [16 x i8]* %29, i64 0, i64 0
  %31 = call i32 (i8*, ...) @__isoc99_scanf(i8* getelementptr inbounds ([3 x i8], [3 x i8]* @.str.1, i64 0, i64 0), i8* %30)
  br label %32

32:                                               ; preds = %38, %0
  %33 = load %struct.stu_imformation*, %struct.stu_imformation** %2, align 8
  %34 = getelementptr inbounds %struct.stu_imformation, %struct.stu_imformation* %33, i32 0, i32 0
  %35 = getelementptr inbounds [16 x i8], [16 x i8]* %34, i64 0, i64 0
  %36 = call i32 @strcmp(i8* %35, i8* getelementptr inbounds ([4 x i8], [4 x i8]* @.str.2, i64 0, i64 0)) #5
  %37 = icmp ne i32 %36, 0
  br i1 %37, label %38, label %64

38:                                               ; preds = %32
  %39 = load %struct.stu_imformation*, %struct.stu_imformation** %2, align 8
  %40 = getelementptr inbounds %struct.stu_imformation, %struct.stu_imformation* %39, i32 0, i32 1
  %41 = getelementptr inbounds [20 x i8], [20 x i8]* %40, i64 0, i64 0
  %42 = load %struct.stu_imformation*, %struct.stu_imformation** %2, align 8
  %43 = getelementptr inbounds %struct.stu_imformation, %struct.stu_imformation* %42, i32 0, i32 2
  %44 = load %struct.stu_imformation*, %struct.stu_imformation** %2, align 8
  %45 = getelementptr inbounds %struct.stu_imformation, %struct.stu_imformation* %44, i32 0, i32 3
  %46 = load %struct.stu_imformation*, %struct.stu_imformation** %2, align 8
  %47 = getelementptr inbounds %struct.stu_imformation, %struct.stu_imformation* %46, i32 0, i32 4
  %48 = getelementptr inbounds [10 x i8], [10 x i8]* %47, i64 0, i64 0
  %49 = load %struct.stu_imformation*, %struct.stu_imformation** %2, align 8
  %50 = getelementptr inbounds %struct.stu_imformation, %struct.stu_imformation* %49, i32 0, i32 5
  %51 = getelementptr inbounds [20 x i8], [20 x i8]* %50, i64 0, i64 0
  %52 = call i32 (i8*, ...) @__isoc99_scanf(i8* getelementptr inbounds ([15 x i8], [15 x i8]* @.str.3, i64 0, i64 0), i8* %41, i8* %43, i32* %45, i8* %48, i8* %51)
  %53 = load %struct.stu_imformation*, %struct.stu_imformation** %3, align 8
  %54 = load %struct.stu_imformation*, %struct.stu_imformation** %2, align 8
  %55 = getelementptr inbounds %struct.stu_imformation, %struct.stu_imformation* %54, i32 0, i32 6
  store %struct.stu_imformation* %53, %struct.stu_imformation** %55, align 8
  %56 = load %struct.stu_imformation*, %struct.stu_imformation** %2, align 8
  store %struct.stu_imformation* %56, %struct.stu_imformation** %1, align 8
  %57 = load %struct.stu_imformation*, %struct.stu_imformation** %2, align 8
  store %struct.stu_imformation* %57, %struct.stu_imformation** %3, align 8
  %58 = call noalias i8* @malloc(i64 100) #4
  %59 = bitcast i8* %58 to %struct.stu_imformation*
  store %struct.stu_imformation* %59, %struct.stu_imformation** %2, align 8
  %60 = load %struct.stu_imformation*, %struct.stu_imformation** %2, align 8
  %61 = getelementptr inbounds %struct.stu_imformation, %struct.stu_imformation* %60, i32 0, i32 0
  %62 = getelementptr inbounds [16 x i8], [16 x i8]* %61, i64 0, i64 0
  %63 = call i32 (i8*, ...) @__isoc99_scanf(i8* getelementptr inbounds ([3 x i8], [3 x i8]* @.str.1, i64 0, i64 0), i8* %62)
  br label %32

64:                                               ; preds = %32
  %65 = load %struct.stu_imformation*, %struct.stu_imformation** %1, align 8
  store %struct.stu_imformation* %65, %struct.stu_imformation** %2, align 8
  br label %66

66:                                               ; preds = %69, %64
  %67 = load %struct.stu_imformation*, %struct.stu_imformation** %2, align 8
  %68 = icmp ne %struct.stu_imformation* %67, null
  br i1 %68, label %69, label %93

69:                                               ; preds = %66
  %70 = load %struct.stu_imformation*, %struct.stu_imformation** %2, align 8
  %71 = getelementptr inbounds %struct.stu_imformation, %struct.stu_imformation* %70, i32 0, i32 0
  %72 = getelementptr inbounds [16 x i8], [16 x i8]* %71, i64 0, i64 0
  %73 = load %struct.stu_imformation*, %struct.stu_imformation** %2, align 8
  %74 = getelementptr inbounds %struct.stu_imformation, %struct.stu_imformation* %73, i32 0, i32 1
  %75 = getelementptr inbounds [20 x i8], [20 x i8]* %74, i64 0, i64 0
  %76 = load %struct.stu_imformation*, %struct.stu_imformation** %2, align 8
  %77 = getelementptr inbounds %struct.stu_imformation, %struct.stu_imformation* %76, i32 0, i32 2
  %78 = load i8, i8* %77, align 4
  %79 = sext i8 %78 to i32
  %80 = load %struct.stu_imformation*, %struct.stu_imformation** %2, align 8
  %81 = getelementptr inbounds %struct.stu_imformation, %struct.stu_imformation* %80, i32 0, i32 3
  %82 = load i32, i32* %81, align 8
  %83 = load %struct.stu_imformation*, %struct.stu_imformation** %2, align 8
  %84 = getelementptr inbounds %struct.stu_imformation, %struct.stu_imformation* %83, i32 0, i32 4
  %85 = getelementptr inbounds [10 x i8], [10 x i8]* %84, i64 0, i64 0
  %86 = load %struct.stu_imformation*, %struct.stu_imformation** %2, align 8
  %87 = getelementptr inbounds %struct.stu_imformation, %struct.stu_imformation* %86, i32 0, i32 5
  %88 = getelementptr inbounds [20 x i8], [20 x i8]* %87, i64 0, i64 0
  %89 = call i32 (i8*, ...) @printf(i8* getelementptr inbounds ([19 x i8], [19 x i8]* @.str.4, i64 0, i64 0), i8* %72, i8* %75, i32 %79, i32 %82, i8* %85, i8* %88)
  %90 = load %struct.stu_imformation*, %struct.stu_imformation** %2, align 8
  %91 = getelementptr inbounds %struct.stu_imformation, %struct.stu_imformation* %90, i32 0, i32 6
  %92 = load %struct.stu_imformation*, %struct.stu_imformation** %91, align 8
  store %struct.stu_imformation* %92, %struct.stu_imformation** %2, align 8
  br label %66

93:                                               ; preds = %66
  ret void
}

; Function Attrs: nounwind
declare dso_local noalias i8* @malloc(i64) #1

declare dso_local i32 @__isoc99_scanf(i8*, ...) #2

; Function Attrs: nounwind readonly
declare dso_local i32 @strcmp(i8*, i8*) #3

declare dso_local i32 @printf(i8*, ...) #2


!llvm.module.flags = !{!0}
!llvm.ident = !{!1}

!0 = !{i32 1, !"wchar_size", i32 4}
!1 = !{!"clang version 10.0.0-4ubuntu1 "}
